target datalayout = "e-m:e-p270:32:32-p271:32:32-p272:64:64-i64:64-i128:128-f80:128-n8:16:32:64-S128"
target triple = "x86_64-pc-linux-gnu"

; Function Attrs: nounwind uwtable
define internal double @myround(double noundef %0) #0 {
  %2 = alloca double, align 8
  %3 = alloca double, align 8
  store double %0, ptr %3, align 8
  %4 = load double, ptr %3, align 8
  %5 = fcmp olt double %4, 0.000000e+00
  br i1 %5, label %6, label %9

6:                                                ; preds = %1
  %7 = load double, ptr %3, align 8
  %8 = fsub double %7, 5.000000e-01
  store double %8, ptr %2, align 8
  br label %12

9:                                                ; preds = %1
  %10 = load double, ptr %3, align 8
  %11 = fadd double %10, 5.000000e-01
  store double %11, ptr %2, align 8
  br label %12

12:                                               ; preds = %9, %6
  %13 = load double, ptr %2, align 8
  ret double %13
}

; Function Attrs: nounwind uwtable
define i32 @cli_bcapi_ipow(ptr noundef %0, i32 noundef %1, i32 noundef %2, i32 noundef %3) #0 {
  %5 = alloca i32, align 4
  %6 = alloca ptr, align 8
  %7 = alloca i32, align 4
  %8 = alloca i32, align 4
  %9 = alloca i32, align 4
  store ptr %0, ptr %6, align 8
  store i32 %1, ptr %7, align 4
  store i32 %2, ptr %8, align 4
  store i32 %3, ptr %9, align 4
  %10 = load i32, ptr %7, align 4
  %11 = icmp ne i32 %10, 0
  br i1 %11, label %16, label %12

12:                                               ; preds = %4
  %13 = load i32, ptr %8, align 4
  %14 = icmp slt i32 %13, 0
  br i1 %14, label %15, label %16

15:                                               ; preds = %12
  store i32 2147483647, ptr %5, align 4
  br label %27

16:                                               ; preds = %12, %4
  %17 = load i32, ptr %9, align 4
  %18 = sitofp i32 %17 to double
  %19 = load i32, ptr %7, align 4
  %20 = sitofp i32 %19 to double
  %21 = load i32, ptr %8, align 4
  %22 = sitofp i32 %21 to double
  %23 = call double @pow(double noundef %20, double noundef %22) #10
  %24 = fmul double %18, %23
  %25 = call double @myround(double noundef %24)
  %26 = fptosi double %25 to i32
  store i32 %26, ptr %5, align 4
  br label %27

27:                                               ; preds = %16, %15
  %28 = load i32, ptr %5, align 4
  ret i32 %28
}