; Function Attrs: mustprogress nofree nounwind willreturn memory(write) uwtable
define i32 @cli_bcapi_ipow(ptr nocapture noundef readnone %0, i32 noundef %1, i32 noundef %2, i32 noundef %3) local_unnamed_addr #16 {
  %5 = icmp eq i32 %1, 0
  %6 = icmp slt i32 %2, 0
  %or.cond = and i1 %5, %6
  br i1 %or.cond, label %15, label %7

7:                                                ; preds = %4
  %8 = sitofp i32 %3 to double
  %9 = sitofp i32 %1 to double
  %10 = sitofp i32 %2 to double
  %11 = tail call double @pow(double noundef %9, double noundef %10) #29
  %12 = fmul double %11, %8
  %13 = fcmp olt double %12, 0.000000e+00
  %.0.v.i = select i1 %13, double -5.000000e-01, double 5.000000e-01
  %.0.i = fadd double %12, %.0.v.i
  %14 = fptosi double %.0.i to i32
  br label %15

15:                                               ; preds = %4, %7
  %.0 = phi i32 [ %14, %7 ], [ 2147483647, %4 ]
  ret i32 %.0
}